target datalayout = "e-m:e-p270:32:32-p271:32:32-p272:64:64-i64:64-i128:128-f80:128-n8:16:32:64-S128"
target triple = "x86_64-pc-linux-gnu"

%struct.OSInfo = type { ptr, ptr, i8, ptr, i32, ptr, i32, ptr }
%struct.ClusterInfo = type { %struct.ControlData, ptr, %struct.DbInfoArr, ptr, ptr, ptr, ptr, ptr, i16, i32, [64 x i8], i32, ptr, i32 }
%struct.ControlData = type { i32, i32, [25 x i8], i32, i32, i32, i32, i32, i32, i32, i32, i32, i32, i32, i32, i32, i32, i32, i32, i8, i8, i32 }
%struct.DbInfoArr = type { ptr, i32 }
%struct.LogOpts = type { ptr, i8, i8, ptr, ptr, ptr, ptr, i8 }
%struct.PQExpBufferData = type { ptr, i64, i64 }

@.str = private unnamed_addr constant [3 x i8] c"%s\00", align 1
@os_info = external global %struct.OSInfo, align 8
@start_postmaster.exit_hook_registered = internal global i8 0, align 1
@.str.13 = private unnamed_addr constant [56 x i8] c" -c listen_addresses='' -c unix_socket_permissions=0700\00", align 1
@.str.14 = private unnamed_addr constant [12 x i8] c" -c %s='%s'\00", align 1
@.str.15 = private unnamed_addr constant [22 x i8] c"unix_socket_directory\00", align 1
@.str.16 = private unnamed_addr constant [24 x i8] c"unix_socket_directories\00", align 1
@new_cluster = external global %struct.ClusterInfo, align 8
@.str.17 = private unnamed_addr constant [64 x i8] c" -c synchronous_commit=off -c fsync=off -c full_page_writes=off\00", align 1
@.str.18 = private unnamed_addr constant [30 x i8] c" -c max_slot_wal_keep_size=-1\00", align 1
@.str.19 = private unnamed_addr constant [61 x i8] c"\22%s/pg_ctl\22 -w -l \22%s/%s\22 -D \22%s\22 -o \22-p %d -b%s %s%s\22 start\00", align 1
@log_opts = external global %struct.LogOpts, align 8
@.str.20 = private unnamed_addr constant [22 x i8] c"pg_upgrade_server.log\00", align 1
@.str.21 = private unnamed_addr constant [1 x i8] zeroinitializer, align 1
@.str.22 = private unnamed_addr constant [10 x i8] c"template1\00", align 1
@.str.23 = private unnamed_addr constant [4 x i8] c"\0A%s\00", align 1
@old_cluster = external global %struct.ClusterInfo, align 8
@.str.24 = private unnamed_addr constant [68 x i8] c"could not connect to source postmaster started with the command:\0A%s\00", align 1
@.str.25 = private unnamed_addr constant [68 x i8] c"could not connect to target postmaster started with the command:\0A%s\00", align 1
@.str.26 = private unnamed_addr constant [63 x i8] c"pg_ctl failed to start the source server, or connection failed\00", align 1
@.str.27 = private unnamed_addr constant [63 x i8] c"pg_ctl failed to start the target server, or connection failed\00", align 1

; Function Attrs: nounwind uwtable
define dso_local zeroext i1 @start_postmaster(ptr noundef %0, i1 noundef zeroext %1) #0 {
  %3 = alloca i1, align 1
  %4 = alloca ptr, align 8
  %5 = alloca i8, align 1
  %6 = alloca [5096 x i8], align 16
  %7 = alloca ptr, align 8
  %8 = alloca i8, align 1
  %9 = alloca [1224 x i8], align 16
  %10 = alloca %struct.PQExpBufferData, align 8
  %11 = alloca i32, align 4
  store ptr %0, ptr %4, align 8
  %12 = zext i1 %1 to i8
  store i8 %12, ptr %5, align 1
  call void @llvm.lifetime.start.p0(i64 5096, ptr %6) #9
  call void @llvm.lifetime.start.p0(i64 8, ptr %7) #9
  call void @llvm.lifetime.start.p0(i64 1, ptr %8) #9
  store i8 0, ptr %8, align 1
  call void @llvm.lifetime.start.p0(i64 1224, ptr %9) #9
  call void @llvm.lifetime.start.p0(i64 24, ptr %10) #9
  %13 = load i8, ptr @start_postmaster.exit_hook_registered, align 1, !range !4, !noundef !5
  %14 = trunc i8 %13 to i1
  br i1 %14, label %17, label %15

15:                                               ; preds = %2
  %16 = call i32 @atexit(ptr noundef @stop_postmaster_atexit) #9
  store i8 1, ptr @start_postmaster.exit_hook_registered, align 1
  br label %17

17:                                               ; preds = %15, %2
  %18 = getelementptr inbounds [1224 x i8], ptr %9, i64 0, i64 0
  store i8 0, ptr %18, align 16
  %19 = getelementptr inbounds [1224 x i8], ptr %9, i64 0, i64 0
  %20 = call ptr @strcat(ptr noundef %19, ptr noundef @.str.13) #9
  %21 = load ptr, ptr %4, align 8
  %22 = getelementptr inbounds nuw %struct.ClusterInfo, ptr %21, i32 0, i32 7
  %23 = load ptr, ptr %22, align 8
  %24 = icmp ne ptr %23, null
  br i1 %24, label %25, label %43

25:                                               ; preds = %17
  %26 = getelementptr inbounds [1224 x i8], ptr %9, i64 0, i64 0
  %27 = getelementptr inbounds [1224 x i8], ptr %9, i64 0, i64 0
  %28 = call i64 @strlen(ptr noundef %27) #12
  %29 = getelementptr inbounds nuw i8, ptr %26, i64 %28
  %30 = getelementptr inbounds [1224 x i8], ptr %9, i64 0, i64 0
  %31 = call i64 @strlen(ptr noundef %30) #12
  %32 = sub i64 1224, %31
  %33 = load ptr, ptr %4, align 8
  %34 = getelementptr inbounds nuw %struct.ClusterInfo, ptr %33, i32 0, i32 9
  %35 = load i32, ptr %34, align 4
  %36 = udiv i32 %35, 100
  %37 = icmp ule i32 %36, 902
  %38 = select i1 %37, ptr @.str.15, ptr @.str.16
  %39 = load ptr, ptr %4, align 8
  %40 = getelementptr inbounds nuw %struct.ClusterInfo, ptr %39, i32 0, i32 7
  %41 = load ptr, ptr %40, align 8
  %42 = call i32 (ptr, i64, ptr, ...) @pg_snprintf(ptr noundef %29, i64 noundef %32, ptr noundef @.str.14, ptr noundef %38, ptr noundef %41)
  br label %43

43:                                               ; preds = %25, %17
  call void @initPQExpBuffer(ptr noundef %10)
  %44 = load ptr, ptr %4, align 8
  %45 = icmp eq ptr %44, @new_cluster
  br i1 %45, label %46, label %47

46:                                               ; preds = %43
  call void @appendPQExpBufferStr(ptr noundef %10, ptr noundef @.str.17)
  br label %47

47:                                               ; preds = %46, %43
  %48 = load ptr, ptr %4, align 8
  %49 = getelementptr inbounds nuw %struct.ClusterInfo, ptr %48, i32 0, i32 9
  %50 = load i32, ptr %49, align 4
  %51 = udiv i32 %50, 100
  %52 = icmp uge i32 %51, 1700
  br i1 %52, label %53, label %54

53:                                               ; preds = %47
  call void @appendPQExpBufferStr(ptr noundef %10, ptr noundef @.str.18)
  br label %54

54:                                               ; preds = %53, %47
  %55 = getelementptr inbounds [5096 x i8], ptr %6, i64 0, i64 0
  %56 = load ptr, ptr %4, align 8
  %57 = getelementptr inbounds nuw %struct.ClusterInfo, ptr %56, i32 0, i32 5
  %58 = load ptr, ptr %57, align 8
  %59 = load ptr, ptr getelementptr inbounds nuw (%struct.LogOpts, ptr @log_opts, i32 0, i32 6), align 8
  %60 = load ptr, ptr %4, align 8
  %61 = getelementptr inbounds nuw %struct.ClusterInfo, ptr %60, i32 0, i32 4
  %62 = load ptr, ptr %61, align 8
  %63 = load ptr, ptr %4, align 8
  %64 = getelementptr inbounds nuw %struct.ClusterInfo, ptr %63, i32 0, i32 8
  %65 = load i16, ptr %64, align 8
  %66 = zext i16 %65 to i32
  %67 = getelementptr inbounds nuw %struct.PQExpBufferData, ptr %10, i32 0, i32 0
  %68 = load ptr, ptr %67, align 8
  %69 = load ptr, ptr %4, align 8
  %70 = getelementptr inbounds nuw %struct.ClusterInfo, ptr %69, i32 0, i32 6
  %71 = load ptr, ptr %70, align 8
  %72 = icmp ne ptr %71, null
  br i1 %72, label %73, label %77

73:                                               ; preds = %54
  %74 = load ptr, ptr %4, align 8
  %75 = getelementptr inbounds nuw %struct.ClusterInfo, ptr %74, i32 0, i32 6
  %76 = load ptr, ptr %75, align 8
  br label %78

77:                                               ; preds = %54
  br label %78

78:                                               ; preds = %77, %73
  %79 = phi ptr [ %76, %73 ], [ @.str.21, %77 ]
  %80 = getelementptr inbounds [1224 x i8], ptr %9, i64 0, i64 0
  %81 = call i32 (ptr, i64, ptr, ...) @pg_snprintf(ptr noundef %55, i64 noundef 5096, ptr noundef @.str.19, ptr noundef %58, ptr noundef %59, ptr noundef @.str.20, ptr noundef %62, i32 noundef %66, ptr noundef %68, ptr noundef %79, ptr noundef %80)
  call void @termPQExpBuffer(ptr noundef %10)
  %82 = load i8, ptr %5, align 1, !range !4, !noundef !5
  %83 = trunc i8 %82 to i1
  %84 = getelementptr inbounds [5096 x i8], ptr %6, i64 0, i64 0
  %85 = call zeroext i1 (ptr, ptr, i1, i1, ptr, ...) @exec_prog(ptr noundef @.str.20, ptr noundef null, i1 noundef zeroext %83, i1 noundef zeroext false, ptr noundef @.str, ptr noundef %84)
  %86 = zext i1 %85 to i8
  store i8 %86, ptr %8, align 1
  %87 = load i8, ptr %8, align 1, !range !4, !noundef !5
  %88 = trunc i8 %87 to i1
  br i1 %88, label %93, label %89

89:                                               ; preds = %78
  %90 = load i8, ptr %5, align 1, !range !4, !noundef !5
  %91 = trunc i8 %90 to i1
  br i1 %91, label %93, label %92

92:                                               ; preds = %89
  store i1 false, ptr %3, align 1
  store i32 1, ptr %11, align 4
  br label %130

93:                                               ; preds = %89, %78
  %94 = load i8, ptr %8, align 1, !range !4, !noundef !5
  %95 = trunc i8 %94 to i1
  br i1 %95, label %96, label %98

96:                                               ; preds = %93
  %97 = load ptr, ptr %4, align 8
  store ptr %97, ptr getelementptr inbounds nuw (%struct.OSInfo, ptr @os_info, i32 0, i32 7), align 8
  br label %98

98:                                               ; preds = %96, %93
  %99 = load ptr, ptr %4, align 8
  %100 = call ptr @get_db_conn(ptr noundef %99, ptr noundef @.str.22)
  store ptr %100, ptr %7, align 8
  %101 = icmp eq ptr %100, null
  br i1 %101, label %106, label %102

102:                                              ; preds = %98
  %103 = load ptr, ptr %7, align 8
  %104 = call i32 @PQstatus(ptr noundef %103)
  %105 = icmp ne i32 %104, 0
  br i1 %105, label %106, label %120

106:                                              ; preds = %102, %98
  %107 = load ptr, ptr %7, align 8
  %108 = call ptr @PQerrorMessage(ptr noundef %107)
  call void (i32, ptr, ...) @pg_log(i32 noundef 3, ptr noundef @.str.23, ptr noundef %108)
  %109 = load ptr, ptr %7, align 8
  %110 = icmp ne ptr %109, null
  br i1 %110, label %111, label %113

111:                                              ; preds = %106
  %112 = load ptr, ptr %7, align 8
  call void @PQfinish(ptr noundef %112)
  br label %113

113:                                              ; preds = %111, %106
  %114 = load ptr, ptr %4, align 8
  %115 = icmp eq ptr %114, @old_cluster
  br i1 %115, label %116, label %118

116:                                              ; preds = %113
  %117 = getelementptr inbounds [5096 x i8], ptr %6, i64 0, i64 0
  call void (ptr, ...) @pg_fatal(ptr noundef @.str.24, ptr noundef %117) #11
  unreachable

118:                                              ; preds = %113
  %119 = getelementptr inbounds [5096 x i8], ptr %6, i64 0, i64 0
  call void (ptr, ...) @pg_fatal(ptr noundef @.str.25, ptr noundef %119) #11
  unreachable

120:                                              ; preds = %102
  %121 = load ptr, ptr %7, align 8
  call void @PQfinish(ptr noundef %121)
  %122 = load i8, ptr %8, align 1, !range !4, !noundef !5
  %123 = trunc i8 %122 to i1
  br i1 %123, label %129, label %124

124:                                              ; preds = %120
  %125 = load ptr, ptr %4, align 8
  %126 = icmp eq ptr %125, @old_cluster
  br i1 %126, label %127, label %128

127:                                              ; preds = %124
  call void (ptr, ...) @pg_fatal(ptr noundef @.str.26) #11
  unreachable

128:                                              ; preds = %124
  call void (ptr, ...) @pg_fatal(ptr noundef @.str.27) #11
  unreachable

129:                                              ; preds = %120
  store i1 true, ptr %3, align 1
  store i32 1, ptr %11, align 4
  br label %130

130:                                              ; preds = %129, %92
  call void @llvm.lifetime.end.p0(i64 24, ptr %10) #9
  call void @llvm.lifetime.end.p0(i64 1224, ptr %9) #9
  call void @llvm.lifetime.end.p0(i64 1, ptr %8) #9
  call void @llvm.lifetime.end.p0(i64 8, ptr %7) #9
  call void @llvm.lifetime.end.p0(i64 5096, ptr %6) #9
  %131 = load i1, ptr %3, align 1
  ret i1 %131
}