; Function Attrs: nounwind uwtable
define dso_local noundef zeroext i1 @start_postmaster(ptr noundef %0, i1 noundef zeroext %1) local_unnamed_addr #0 {
  %3 = alloca [5096 x i8], align 16
  %4 = alloca [1224 x i8], align 16
  %5 = alloca %struct.PQExpBufferData, align 8
  call void @llvm.lifetime.start.p0(i64 5096, ptr nonnull %3) #10
  call void @llvm.lifetime.start.p0(i64 1224, ptr nonnull %4) #10
  call void @llvm.lifetime.start.p0(i64 24, ptr nonnull %5) #10
  %.b27 = load i1, ptr @start_postmaster.exit_hook_registered, align 1
  br i1 %.b27, label %8, label %6

6:                                                ; preds = %2
  %7 = tail call i32 @atexit(ptr noundef nonnull @stop_postmaster_atexit) #10
  store i1 true, ptr @start_postmaster.exit_hook_registered, align 1
  br label %8

8:                                                ; preds = %6, %2
  store i8 0, ptr %4, align 16
  %strlen = call i64 @strlen(ptr nonnull dereferenceable(1) %4)
  %endptr = getelementptr inbounds i8, ptr %4, i64 %strlen
  call void @llvm.memcpy.p0.p0.i64(ptr noundef nonnull align 1 dereferenceable(56) %endptr, ptr noundef nonnull align 1 dereferenceable(56) @.str.13, i64 56, i1 false)
  %9 = getelementptr inbounds nuw i8, ptr %0, i64 168
  %10 = load ptr, ptr %9, align 8
  %.not = icmp eq ptr %10, null
  br i1 %.not, label %20, label %11

11:                                               ; preds = %8
  %12 = call i64 @strlen(ptr noundef nonnull dereferenceable(1) %4) #13
  %13 = getelementptr inbounds nuw i8, ptr %4, i64 %12
  %14 = sub i64 1224, %12
  %15 = getelementptr inbounds nuw i8, ptr %0, i64 180
  %16 = load i32, ptr %15, align 4
  %17 = icmp ult i32 %16, 90300
  %18 = select i1 %17, ptr @.str.15, ptr @.str.16
  %19 = call i32 (ptr, i64, ptr, ...) @pg_snprintf(ptr noundef nonnull %13, i64 noundef %14, ptr noundef nonnull @.str.14, ptr noundef nonnull %18, ptr noundef nonnull %10) #10
  br label %20

20:                                               ; preds = %11, %8
  call void @initPQExpBuffer(ptr noundef nonnull %5) #10
  %21 = icmp eq ptr %0, @new_cluster
  br i1 %21, label %22, label %23

22:                                               ; preds = %20
  call void @appendPQExpBufferStr(ptr noundef nonnull %5, ptr noundef nonnull @.str.17) #10
  br label %23

23:                                               ; preds = %22, %20
  %24 = getelementptr inbounds nuw i8, ptr %0, i64 180
  %25 = load i32, ptr %24, align 4
  %26 = icmp ugt i32 %25, 169999
  br i1 %26, label %27, label %28

27:                                               ; preds = %23
  call void @appendPQExpBufferStr(ptr noundef nonnull %5, ptr noundef nonnull @.str.18) #10
  br label %28

28:                                               ; preds = %27, %23
  %29 = getelementptr inbounds nuw i8, ptr %0, i64 152
  %30 = load ptr, ptr %29, align 8
  %31 = load ptr, ptr getelementptr inbounds nuw (i8, ptr @log_opts, i64 40), align 8
  %32 = getelementptr inbounds nuw i8, ptr %0, i64 144
  %33 = load ptr, ptr %32, align 8
  %34 = getelementptr inbounds nuw i8, ptr %0, i64 176
  %35 = load i16, ptr %34, align 8
  %36 = zext i16 %35 to i32
  %37 = load ptr, ptr %5, align 8
  %38 = getelementptr inbounds nuw i8, ptr %0, i64 160
  %39 = load ptr, ptr %38, align 8
  %.not28 = icmp eq ptr %39, null
  %spec.select = select i1 %.not28, ptr @.str.21, ptr %39
  %40 = call i32 (ptr, i64, ptr, ...) @pg_snprintf(ptr noundef nonnull %3, i64 noundef 5096, ptr noundef nonnull @.str.19, ptr noundef %30, ptr noundef %31, ptr noundef nonnull @.str.20, ptr noundef %33, i32 noundef %36, ptr noundef %37, ptr noundef nonnull %spec.select, ptr noundef nonnull %4) #10
  call void @termPQExpBuffer(ptr noundef nonnull %5) #10
  %41 = call zeroext i1 (ptr, ptr, i1, i1, ptr, ...) @exec_prog(ptr noundef nonnull @.str.20, ptr noundef null, i1 noundef zeroext %1, i1 noundef zeroext false, ptr noundef nonnull @.str, ptr noundef nonnull %3) #10
  %brmerge = or i1 %1, %41
  br i1 %brmerge, label %42, label %61

42:                                               ; preds = %28
  br i1 %41, label %43, label %44

43:                                               ; preds = %42
  store ptr %0, ptr getelementptr inbounds nuw (i8, ptr @os_info, i64 56), align 8
  br label %44

44:                                               ; preds = %43, %42
  %45 = call fastcc ptr @get_db_conn(ptr noundef nonnull %0, ptr noundef nonnull @.str.22)
  %46 = icmp eq ptr %45, null
  br i1 %46, label %.critedge, label %47

47:                                               ; preds = %44
  %48 = call i32 @PQstatus(ptr noundef nonnull %45) #10
  %.not29 = icmp eq i32 %48, 0
  br i1 %.not29, label %56, label %49

49:                                               ; preds = %47
  %50 = call ptr @PQerrorMessage(ptr noundef nonnull %45) #10
  call void (i32, ptr, ...) @pg_log(i32 noundef 3, ptr noundef nonnull @.str.23, ptr noundef %50) #10
  call void @PQfinish(ptr noundef nonnull %45) #10
  br label %52

.critedge:                                        ; preds = %44
  %51 = call ptr @PQerrorMessage(ptr noundef null) #10
  call void (i32, ptr, ...) @pg_log(i32 noundef 3, ptr noundef nonnull @.str.23, ptr noundef %51) #10
  br label %52

52:                                               ; preds = %.critedge, %49
  %53 = icmp eq ptr %0, @old_cluster
  br i1 %53, label %54, label %55

54:                                               ; preds = %52
  call void (ptr, ...) @pg_fatal(ptr noundef nonnull @.str.24, ptr noundef nonnull %3) #12
  unreachable

55:                                               ; preds = %52
  call void (ptr, ...) @pg_fatal(ptr noundef nonnull @.str.25, ptr noundef nonnull %3) #12
  unreachable

56:                                               ; preds = %47
  call void @PQfinish(ptr noundef nonnull %45) #10
  br i1 %41, label %61, label %57

57:                                               ; preds = %56
  %58 = icmp eq ptr %0, @old_cluster
  br i1 %58, label %59, label %60

59:                                               ; preds = %57
  call void (ptr, ...) @pg_fatal(ptr noundef nonnull @.str.26) #12
  unreachable

60:                                               ; preds = %57
  call void (ptr, ...) @pg_fatal(ptr noundef nonnull @.str.27) #12
  unreachable

61:                                               ; preds = %56, %28
  call void @llvm.lifetime.end.p0(i64 24, ptr nonnull %5) #10
  call void @llvm.lifetime.end.p0(i64 1224, ptr nonnull %4) #10
  call void @llvm.lifetime.end.p0(i64 5096, ptr nonnull %3) #10
  ret i1 %brmerge
}